target datalayout = "e-m:e-p270:32:32-p271:32:32-p272:64:64-i64:64-i128:128-f80:128-n8:16:32:64-S128"
target triple = "x86_64-pc-linux-gnu"

%"class.open3d::geometry::HalfEdgeTriangleMesh" = type { %"class.open3d::geometry::MeshBase", %"class.std::vector.16", %"class.std::vector", %"class.std::vector.21", %"class.std::vector.26" }
%"class.open3d::geometry::MeshBase" = type { %"class.open3d::geometry::Geometry3D", %"class.std::vector", %"class.std::vector", %"class.std::vector" }
%"class.open3d::geometry::Geometry3D" = type { %"class.open3d::geometry::Geometry" }
%"class.open3d::geometry::Geometry" = type { ptr, i32, i32, %"class.std::__cxx11::basic_string" }
%"class.std::__cxx11::basic_string" = type { %"struct.std::__cxx11::basic_string<char>::_Alloc_hider", i64, %union.anon }
%"struct.std::__cxx11::basic_string<char>::_Alloc_hider" = type { ptr }
%union.anon = type { i64, [8 x i8] }
%"class.std::vector.16" = type { %"struct.std::_Vector_base.17" }
%"struct.std::_Vector_base.17" = type { %"struct.std::_Vector_base<Eigen::Matrix<int, 3, 1>, std::allocator<Eigen::Matrix<int, 3, 1>>>::_Vector_impl" }
%"struct.std::_Vector_base<Eigen::Matrix<int, 3, 1>, std::allocator<Eigen::Matrix<int, 3, 1>>>::_Vector_impl" = type { %"struct.std::_Vector_base<Eigen::Matrix<int, 3, 1>, std::allocator<Eigen::Matrix<int, 3, 1>>>::_Vector_impl_data" }
%"struct.std::_Vector_base<Eigen::Matrix<int, 3, 1>, std::allocator<Eigen::Matrix<int, 3, 1>>>::_Vector_impl_data" = type { ptr, ptr, ptr }
%"class.std::vector" = type { %"struct.std::_Vector_base" }
%"struct.std::_Vector_base" = type { %"struct.std::_Vector_base<Eigen::Matrix<double, 3, 1>, std::allocator<Eigen::Matrix<double, 3, 1>>>::_Vector_impl" }
%"struct.std::_Vector_base<Eigen::Matrix<double, 3, 1>, std::allocator<Eigen::Matrix<double, 3, 1>>>::_Vector_impl" = type { %"struct.std::_Vector_base<Eigen::Matrix<double, 3, 1>, std::allocator<Eigen::Matrix<double, 3, 1>>>::_Vector_impl_data" }
%"struct.std::_Vector_base<Eigen::Matrix<double, 3, 1>, std::allocator<Eigen::Matrix<double, 3, 1>>>::_Vector_impl_data" = type { ptr, ptr, ptr }
%"class.std::vector.21" = type { %"struct.std::_Vector_base.22" }
%"struct.std::_Vector_base.22" = type { %"struct.std::_Vector_base<open3d::geometry::HalfEdgeTriangleMesh::HalfEdge, std::allocator<open3d::geometry::HalfEdgeTriangleMesh::HalfEdge>>::_Vector_impl" }
%"struct.std::_Vector_base<open3d::geometry::HalfEdgeTriangleMesh::HalfEdge, std::allocator<open3d::geometry::HalfEdgeTriangleMesh::HalfEdge>>::_Vector_impl" = type { %"struct.std::_Vector_base<open3d::geometry::HalfEdgeTriangleMesh::HalfEdge, std::allocator<open3d::geometry::HalfEdgeTriangleMesh::HalfEdge>>::_Vector_impl_data" }
%"struct.std::_Vector_base<open3d::geometry::HalfEdgeTriangleMesh::HalfEdge, std::allocator<open3d::geometry::HalfEdgeTriangleMesh::HalfEdge>>::_Vector_impl_data" = type { ptr, ptr, ptr }
%"class.std::vector.26" = type { %"struct.std::_Vector_base.27" }
%"struct.std::_Vector_base.27" = type { %"struct.std::_Vector_base<std::vector<int>, std::allocator<std::vector<int>>>::_Vector_impl" }
%"struct.std::_Vector_base<std::vector<int>, std::allocator<std::vector<int>>>::_Vector_impl" = type { %"struct.std::_Vector_base<std::vector<int>, std::allocator<std::vector<int>>>::_Vector_impl_data" }
%"struct.std::_Vector_base<std::vector<int>, std::allocator<std::vector<int>>>::_Vector_impl_data" = type { ptr, ptr, ptr }
%"class.open3d::geometry::HalfEdgeTriangleMesh::HalfEdge" = type { i32, i32, %"class.Eigen::Matrix.3", i32 }
%"class.Eigen::Matrix.3" = type { %"class.Eigen::PlainObjectBase.4" }
%"class.Eigen::PlainObjectBase.4" = type { %"class.Eigen::DenseStorage.11" }
%"class.Eigen::DenseStorage.11" = type { %"struct.Eigen::internal::plain_array.12" }
%"struct.Eigen::internal::plain_array.12" = type { [2 x i32] }

; Function Attrs: mustprogress nounwind ssp uwtable
define linkonce_odr noundef nonnull align 4 dereferenceable(20) ptr @_ZNKSt6vectorIN6open3d8geometry20HalfEdgeTriangleMesh8HalfEdgeESaIS3_EEixEm(ptr noundef nonnull align 8 dereferenceable(24) %0, i64 noundef %1) #4 comdat align 2 {
  %3 = alloca ptr, align 8
  %4 = alloca i64, align 8
  store ptr %0, ptr %3, align 8, !tbaa !45
  store i64 %1, ptr %4, align 8, !tbaa !55
  %5 = load ptr, ptr %3, align 8
  %6 = getelementptr inbounds nuw %"struct.std::_Vector_base.22", ptr %5, i32 0, i32 0
  %7 = getelementptr inbounds nuw %"struct.std::_Vector_base<open3d::geometry::HalfEdgeTriangleMesh::HalfEdge, std::allocator<open3d::geometry::HalfEdgeTriangleMesh::HalfEdge>>::_Vector_impl_data", ptr %6, i32 0, i32 0
  %8 = load ptr, ptr %7, align 8, !tbaa !47
  %9 = load i64, ptr %4, align 8, !tbaa !55
  %10 = getelementptr inbounds nuw %"class.open3d::geometry::HalfEdgeTriangleMesh::HalfEdge", ptr %8, i64 %9
  ret ptr %10
}

; Function Attrs: mustprogress nounwind ssp uwtable
define noundef i32 @_ZNK6open3d8geometry20HalfEdgeTriangleMesh22NextHalfEdgeFromVertexEi(ptr noundef nonnull align 8 dereferenceable(216) %0, i32 noundef %1) #4 align 2 {
  %3 = alloca ptr, align 8
  %4 = alloca i32, align 4
  %5 = alloca ptr, align 8
  %6 = alloca i32, align 4
  %7 = alloca ptr, align 8
  %8 = alloca i32, align 4
  %9 = alloca ptr, align 8
  %10 = alloca i32, align 4
  store ptr %0, ptr %3, align 8, !tbaa !4
  store i32 %1, ptr %4, align 4, !tbaa !27
  %11 = load ptr, ptr %3, align 8
  call void @llvm.lifetime.start.p0(i64 8, ptr %5) #30
  %12 = getelementptr inbounds nuw %"class.open3d::geometry::HalfEdgeTriangleMesh", ptr %11, i32 0, i32 3
  %13 = load i32, ptr %4, align 4, !tbaa !27
  %14 = sext i32 %13 to i64
  %15 = call noundef nonnull align 4 dereferenceable(20) ptr @_ZNKSt6vectorIN6open3d8geometry20HalfEdgeTriangleMesh8HalfEdgeESaIS3_EEixEm(ptr noundef nonnull align 8 dereferenceable(24) %12, i64 noundef %14) #30
  store ptr %15, ptr %5, align 8, !tbaa !23
  call void @llvm.lifetime.start.p0(i64 4, ptr %6) #30
  %16 = load ptr, ptr %5, align 8, !tbaa !23
  %17 = getelementptr inbounds nuw %"class.open3d::geometry::HalfEdgeTriangleMesh::HalfEdge", ptr %16, i32 0, i32 0
  %18 = load i32, ptr %17, align 4, !tbaa !29
  store i32 %18, ptr %6, align 4, !tbaa !27
  call void @llvm.lifetime.start.p0(i64 8, ptr %7) #30
  %19 = getelementptr inbounds nuw %"class.open3d::geometry::HalfEdgeTriangleMesh", ptr %11, i32 0, i32 3
  %20 = load i32, ptr %6, align 4, !tbaa !27
  %21 = sext i32 %20 to i64
  %22 = call noundef nonnull align 4 dereferenceable(20) ptr @_ZNKSt6vectorIN6open3d8geometry20HalfEdgeTriangleMesh8HalfEdgeESaIS3_EEixEm(ptr noundef nonnull align 8 dereferenceable(24) %19, i64 noundef %21) #30
  store ptr %22, ptr %7, align 8, !tbaa !23
  call void @llvm.lifetime.start.p0(i64 4, ptr %8) #30
  %23 = load ptr, ptr %7, align 8, !tbaa !23
  %24 = getelementptr inbounds nuw %"class.open3d::geometry::HalfEdgeTriangleMesh::HalfEdge", ptr %23, i32 0, i32 0
  %25 = load i32, ptr %24, align 4, !tbaa !29
  store i32 %25, ptr %8, align 4, !tbaa !27
  call void @llvm.lifetime.start.p0(i64 8, ptr %9) #30
  %26 = getelementptr inbounds nuw %"class.open3d::geometry::HalfEdgeTriangleMesh", ptr %11, i32 0, i32 3
  %27 = load i32, ptr %8, align 4, !tbaa !27
  %28 = sext i32 %27 to i64
  %29 = call noundef nonnull align 4 dereferenceable(20) ptr @_ZNKSt6vectorIN6open3d8geometry20HalfEdgeTriangleMesh8HalfEdgeESaIS3_EEixEm(ptr noundef nonnull align 8 dereferenceable(24) %26, i64 noundef %28) #30
  store ptr %29, ptr %9, align 8, !tbaa !23
  call void @llvm.lifetime.start.p0(i64 4, ptr %10) #30
  %30 = load ptr, ptr %9, align 8, !tbaa !23
  %31 = getelementptr inbounds nuw %"class.open3d::geometry::HalfEdgeTriangleMesh::HalfEdge", ptr %30, i32 0, i32 1
  %32 = load i32, ptr %31, align 4, !tbaa !35
  store i32 %32, ptr %10, align 4, !tbaa !27
  %33 = load i32, ptr %10, align 4, !tbaa !27
  call void @llvm.lifetime.end.p0(i64 4, ptr %10) #30
  call void @llvm.lifetime.end.p0(i64 8, ptr %9) #30
  call void @llvm.lifetime.end.p0(i64 4, ptr %8) #30
  call void @llvm.lifetime.end.p0(i64 8, ptr %7) #30
  call void @llvm.lifetime.end.p0(i64 4, ptr %6) #30
  call void @llvm.lifetime.end.p0(i64 8, ptr %5) #30
  ret i32 %33
}