; Function Attrs: mustprogress nofree norecurse nosync nounwind ssp willreturn memory(read, inaccessiblemem: none) uwtable
define noundef i32 @_ZNK6open3d8geometry20HalfEdgeTriangleMesh22NextHalfEdgeFromVertexEi(ptr noundef nonnull readonly align 8 captures(none) dereferenceable(216) %0, i32 noundef %1) local_unnamed_addr #11 align 2 {
  %3 = getelementptr inbounds nuw i8, ptr %0, i64 168
  %4 = sext i32 %1 to i64
  %5 = load ptr, ptr %3, align 8, !tbaa !20
  %6 = getelementptr inbounds nuw %"class.open3d::geometry::HalfEdgeTriangleMesh::HalfEdge", ptr %5, i64 %4
  %7 = load i32, ptr %6, align 4, !tbaa !40
  %8 = sext i32 %7 to i64
  %9 = getelementptr inbounds nuw %"class.open3d::geometry::HalfEdgeTriangleMesh::HalfEdge", ptr %5, i64 %8
  %10 = load i32, ptr %9, align 4, !tbaa !40
  %11 = sext i32 %10 to i64
  %12 = getelementptr inbounds nuw %"class.open3d::geometry::HalfEdgeTriangleMesh::HalfEdge", ptr %5, i64 %11, i32 1
  %13 = load i32, ptr %12, align 4, !tbaa !47
  ret i32 %13
}